target datalayout = "e-m:e-p270:32:32-p271:32:32-p272:64:64-i64:64-i128:128-f80:128-n8:16:32:64-S128"
target triple = "x86_64-pc-linux-gnu"

%struct.SubBand = type { i32, i32, i32, i32, i32, i32, i32, ptr, ptr, i32, ptr }

; Function Attrs: inlinehint nounwind uwtable
define internal i32 @divide3(i32 noundef %0) #6 {
  %2 = alloca i32, align 4
  store i32 %0, ptr %2, align 4, !tbaa !47
  %3 = load i32, ptr %2, align 4, !tbaa !47
  %4 = add i32 %3, 1
  %5 = mul i32 %4, 21845
  %6 = add i32 %5, 10922
  %7 = ashr i32 %6, 16
  ret i32 %7
}

; Function Attrs: inlinehint nounwind uwtable
define internal void @intra_dc_prediction_10(ptr noundef %0) #6 {
  %2 = alloca ptr, align 8
  %3 = alloca ptr, align 8
  %4 = alloca i32, align 4
  %5 = alloca i32, align 4
  %6 = alloca i32, align 4
  store ptr %0, ptr %2, align 8, !tbaa !221
  call void @llvm.lifetime.start.p0(i64 8, ptr %3) #12
  %7 = load ptr, ptr %2, align 8, !tbaa !221
  %8 = getelementptr inbounds nuw %struct.SubBand, ptr %7, i32 0, i32 7
  %9 = load ptr, ptr %8, align 8, !tbaa !225
  store ptr %9, ptr %3, align 8, !tbaa !54
  call void @llvm.lifetime.start.p0(i64 4, ptr %4) #12
  call void @llvm.lifetime.start.p0(i64 4, ptr %5) #12
  store i32 1, ptr %4, align 4, !tbaa !47
  br label %10

10:                                               ; preds = %29, %1
  %11 = load i32, ptr %4, align 4, !tbaa !47
  %12 = load ptr, ptr %2, align 8, !tbaa !221
  %13 = getelementptr inbounds nuw %struct.SubBand, ptr %12, i32 0, i32 3
  %14 = load i32, ptr %13, align 4, !tbaa !228
  %15 = icmp slt i32 %11, %14
  br i1 %15, label %16, label %32

16:                                               ; preds = %10
  %17 = load ptr, ptr %3, align 8, !tbaa !54
  %18 = load i32, ptr %4, align 4, !tbaa !47
  %19 = sub nsw i32 %18, 1
  %20 = sext i32 %19 to i64
  %21 = getelementptr inbounds i32, ptr %17, i64 %20
  %22 = load i32, ptr %21, align 4, !tbaa !47
  %23 = load ptr, ptr %3, align 8, !tbaa !54
  %24 = load i32, ptr %4, align 4, !tbaa !47
  %25 = sext i32 %24 to i64
  %26 = getelementptr inbounds i32, ptr %23, i64 %25
  %27 = load i32, ptr %26, align 4, !tbaa !47
  %28 = add i32 %27, %22
  store i32 %28, ptr %26, align 4, !tbaa !47
  br label %29

29:                                               ; preds = %16
  %30 = load i32, ptr %4, align 4, !tbaa !47
  %31 = add nsw i32 %30, 1
  store i32 %31, ptr %4, align 4, !tbaa !47
  br label %10, !llvm.loop !301

32:                                               ; preds = %10
  %33 = load ptr, ptr %2, align 8, !tbaa !221
  %34 = getelementptr inbounds nuw %struct.SubBand, ptr %33, i32 0, i32 2
  %35 = load i32, ptr %34, align 8, !tbaa !227
  %36 = load ptr, ptr %2, align 8, !tbaa !221
  %37 = getelementptr inbounds nuw %struct.SubBand, ptr %36, i32 0, i32 5
  %38 = load i32, ptr %37, align 4, !tbaa !223
  %39 = add nsw i32 1, %38
  %40 = ashr i32 %35, %39
  %41 = load ptr, ptr %3, align 8, !tbaa !54
  %42 = sext i32 %40 to i64
  %43 = getelementptr inbounds i32, ptr %41, i64 %42
  store ptr %43, ptr %3, align 8, !tbaa !54
  store i32 1, ptr %5, align 4, !tbaa !47
  br label %44

44:                                               ; preds = %135, %32
  %45 = load i32, ptr %5, align 4, !tbaa !47
  %46 = load ptr, ptr %2, align 8, !tbaa !221
  %47 = getelementptr inbounds nuw %struct.SubBand, ptr %46, i32 0, i32 4
  %48 = load i32, ptr %47, align 8, !tbaa !229
  %49 = icmp slt i32 %45, %48
  br i1 %49, label %50, label %138

50:                                               ; preds = %44
  %51 = load ptr, ptr %3, align 8, !tbaa !54
  %52 = load ptr, ptr %2, align 8, !tbaa !221
  %53 = getelementptr inbounds nuw %struct.SubBand, ptr %52, i32 0, i32 2
  %54 = load i32, ptr %53, align 8, !tbaa !227
  %55 = load ptr, ptr %2, align 8, !tbaa !221
  %56 = getelementptr inbounds nuw %struct.SubBand, ptr %55, i32 0, i32 5
  %57 = load i32, ptr %56, align 4, !tbaa !223
  %58 = add nsw i32 1, %57
  %59 = ashr i32 %54, %58
  %60 = sub nsw i32 0, %59
  %61 = sext i32 %60 to i64
  %62 = getelementptr inbounds i32, ptr %51, i64 %61
  %63 = load i32, ptr %62, align 4, !tbaa !47
  %64 = load ptr, ptr %3, align 8, !tbaa !54
  %65 = getelementptr inbounds i32, ptr %64, i64 0
  %66 = load i32, ptr %65, align 4, !tbaa !47
  %67 = add i32 %66, %63
  store i32 %67, ptr %65, align 4, !tbaa !47
  store i32 1, ptr %4, align 4, !tbaa !47
  br label %68

68:                                               ; preds = %120, %50
  %69 = load i32, ptr %4, align 4, !tbaa !47
  %70 = load ptr, ptr %2, align 8, !tbaa !221
  %71 = getelementptr inbounds nuw %struct.SubBand, ptr %70, i32 0, i32 3
  %72 = load i32, ptr %71, align 4, !tbaa !228
  %73 = icmp slt i32 %69, %72
  br i1 %73, label %74, label %123

74:                                               ; preds = %68
  call void @llvm.lifetime.start.p0(i64 4, ptr %6) #12
  %75 = load ptr, ptr %3, align 8, !tbaa !54
  %76 = load i32, ptr %4, align 4, !tbaa !47
  %77 = sub nsw i32 %76, 1
  %78 = sext i32 %77 to i64
  %79 = getelementptr inbounds i32, ptr %75, i64 %78
  %80 = load i32, ptr %79, align 4, !tbaa !47
  %81 = load ptr, ptr %3, align 8, !tbaa !54
  %82 = load i32, ptr %4, align 4, !tbaa !47
  %83 = load ptr, ptr %2, align 8, !tbaa !221
  %84 = getelementptr inbounds nuw %struct.SubBand, ptr %83, i32 0, i32 2
  %85 = load i32, ptr %84, align 8, !tbaa !227
  %86 = load ptr, ptr %2, align 8, !tbaa !221
  %87 = getelementptr inbounds nuw %struct.SubBand, ptr %86, i32 0, i32 5
  %88 = load i32, ptr %87, align 4, !tbaa !223
  %89 = add nsw i32 1, %88
  %90 = ashr i32 %85, %89
  %91 = sub nsw i32 %82, %90
  %92 = sext i32 %91 to i64
  %93 = getelementptr inbounds i32, ptr %81, i64 %92
  %94 = load i32, ptr %93, align 4, !tbaa !47
  %95 = add i32 %80, %94
  %96 = load ptr, ptr %3, align 8, !tbaa !54
  %97 = load i32, ptr %4, align 4, !tbaa !47
  %98 = load ptr, ptr %2, align 8, !tbaa !221
  %99 = getelementptr inbounds nuw %struct.SubBand, ptr %98, i32 0, i32 2
  %100 = load i32, ptr %99, align 8, !tbaa !227
  %101 = load ptr, ptr %2, align 8, !tbaa !221
  %102 = getelementptr inbounds nuw %struct.SubBand, ptr %101, i32 0, i32 5
  %103 = load i32, ptr %102, align 4, !tbaa !223
  %104 = add nsw i32 1, %103
  %105 = ashr i32 %100, %104
  %106 = sub nsw i32 %97, %105
  %107 = sub nsw i32 %106, 1
  %108 = sext i32 %107 to i64
  %109 = getelementptr inbounds i32, ptr %96, i64 %108
  %110 = load i32, ptr %109, align 4, !tbaa !47
  %111 = add i32 %95, %110
  store i32 %111, ptr %6, align 4, !tbaa !47
  %112 = load i32, ptr %6, align 4, !tbaa !47
  %113 = call i32 @divide3(i32 noundef %112)
  %114 = load ptr, ptr %3, align 8, !tbaa !54
  %115 = load i32, ptr %4, align 4, !tbaa !47
  %116 = sext i32 %115 to i64
  %117 = getelementptr inbounds i32, ptr %114, i64 %116
  %118 = load i32, ptr %117, align 4, !tbaa !47
  %119 = add i32 %118, %113
  store i32 %119, ptr %117, align 4, !tbaa !47
  call void @llvm.lifetime.end.p0(i64 4, ptr %6) #12
  br label %120

120:                                              ; preds = %74
  %121 = load i32, ptr %4, align 4, !tbaa !47
  %122 = add nsw i32 %121, 1
  store i32 %122, ptr %4, align 4, !tbaa !47
  br label %68, !llvm.loop !302

123:                                              ; preds = %68
  %124 = load ptr, ptr %2, align 8, !tbaa !221
  %125 = getelementptr inbounds nuw %struct.SubBand, ptr %124, i32 0, i32 2
  %126 = load i32, ptr %125, align 8, !tbaa !227
  %127 = load ptr, ptr %2, align 8, !tbaa !221
  %128 = getelementptr inbounds nuw %struct.SubBand, ptr %127, i32 0, i32 5
  %129 = load i32, ptr %128, align 4, !tbaa !223
  %130 = add nsw i32 1, %129
  %131 = ashr i32 %126, %130
  %132 = load ptr, ptr %3, align 8, !tbaa !54
  %133 = sext i32 %131 to i64
  %134 = getelementptr inbounds i32, ptr %132, i64 %133
  store ptr %134, ptr %3, align 8, !tbaa !54
  br label %135

135:                                              ; preds = %123
  %136 = load i32, ptr %5, align 4, !tbaa !47
  %137 = add nsw i32 %136, 1
  store i32 %137, ptr %5, align 4, !tbaa !47
  br label %44, !llvm.loop !303

138:                                              ; preds = %44
  call void @llvm.lifetime.end.p0(i64 4, ptr %5) #12
  call void @llvm.lifetime.end.p0(i64 4, ptr %4) #12
  call void @llvm.lifetime.end.p0(i64 8, ptr %3) #12
  ret void
}