; Function Attrs: inlinehint nofree norecurse nosync nounwind memory(readwrite, inaccessiblemem: none) uwtable
define internal fastcc void @intra_dc_prediction_10(ptr noundef readonly captures(none) %0) unnamed_addr #10 {
  %2 = getelementptr inbounds nuw i8, ptr %0, i64 32
  %3 = load ptr, ptr %2, align 8, !tbaa !218
  %4 = getelementptr inbounds nuw i8, ptr %0, i64 12
  %5 = load i32, ptr %4, align 4, !tbaa !221
  %6 = icmp sgt i32 %5, 1
  br i1 %6, label %.lr.ph.preheader, label %._crit_edge

.lr.ph.preheader:                                 ; preds = %1
  %load_initial = load i32, ptr %3, align 4
  br label %.lr.ph

.lr.ph:                                           ; preds = %.lr.ph.preheader, %.lr.ph
  %store_forwarded = phi i32 [ %load_initial, %.lr.ph.preheader ], [ %9, %.lr.ph ]
  %indvars.iv = phi i64 [ 1, %.lr.ph.preheader ], [ %indvars.iv.next, %.lr.ph ]
  %7 = getelementptr i32, ptr %3, i64 %indvars.iv
  %8 = load i32, ptr %7, align 4, !tbaa !56
  %9 = add i32 %8, %store_forwarded
  store i32 %9, ptr %7, align 4, !tbaa !56
  %indvars.iv.next = add nuw nsw i64 %indvars.iv, 1
  %10 = load i32, ptr %4, align 4, !tbaa !221
  %11 = sext i32 %10 to i64
  %12 = icmp slt i64 %indvars.iv.next, %11
  br i1 %12, label %.lr.ph, label %._crit_edge, !llvm.loop !249

._crit_edge:                                      ; preds = %.lr.ph, %1
  %13 = getelementptr inbounds nuw i8, ptr %0, i64 8
  %14 = getelementptr inbounds nuw i8, ptr %0, i64 20
  %15 = getelementptr inbounds nuw i8, ptr %0, i64 16
  %16 = load i32, ptr %15, align 8, !tbaa !222
  %17 = icmp sgt i32 %16, 1
  br i1 %17, label %.lr.ph46.preheader, label %._crit_edge47

.lr.ph46.preheader:                               ; preds = %._crit_edge
  %18 = load i32, ptr %13, align 8, !tbaa !220
  %19 = load i32, ptr %14, align 4, !tbaa !215
  %20 = add nsw i32 %19, 1
  %21 = ashr i32 %18, %20
  %22 = sext i32 %21 to i64
  %23 = getelementptr inbounds i32, ptr %3, i64 %22
  br label %.lr.ph46

.lr.ph46:                                         ; preds = %.lr.ph46.preheader, %._crit_edge42
  %24 = phi i32 [ %61, %._crit_edge42 ], [ %19, %.lr.ph46.preheader ]
  %25 = phi i32 [ %60, %._crit_edge42 ], [ %18, %.lr.ph46.preheader ]
  %.044 = phi ptr [ %65, %._crit_edge42 ], [ %23, %.lr.ph46.preheader ]
  %.03643 = phi i32 [ %66, %._crit_edge42 ], [ 1, %.lr.ph46.preheader ]
  %26 = add nsw i32 %24, 1
  %27 = ashr i32 %25, %26
  %28 = sub nsw i32 0, %27
  %29 = sext i32 %28 to i64
  %30 = getelementptr inbounds i32, ptr %.044, i64 %29
  %31 = load i32, ptr %30, align 4, !tbaa !56
  %32 = load i32, ptr %.044, align 4, !tbaa !56
  %33 = add i32 %32, %31
  store i32 %33, ptr %.044, align 4, !tbaa !56
  %34 = load i32, ptr %4, align 4, !tbaa !221
  %35 = icmp sgt i32 %34, 1
  br i1 %35, label %.lr.ph41, label %._crit_edge42

.lr.ph41:                                         ; preds = %.lr.ph46, %.lr.ph41
  %indvars.iv49 = phi i64 [ %indvars.iv.next50, %.lr.ph41 ], [ 1, %.lr.ph46 ]
  %36 = getelementptr i32, ptr %.044, i64 %indvars.iv49
  %37 = getelementptr i8, ptr %36, i64 -4
  %38 = load i32, ptr %37, align 4, !tbaa !56
  %39 = load i32, ptr %13, align 8, !tbaa !220
  %40 = load i32, ptr %14, align 4, !tbaa !215
  %41 = add nsw i32 %40, 1
  %42 = ashr i32 %39, %41
  %43 = trunc nuw nsw i64 %indvars.iv49 to i32
  %44 = sub nsw i32 %43, %42
  %45 = sext i32 %44 to i64
  %46 = getelementptr inbounds i32, ptr %.044, i64 %45
  %47 = load i32, ptr %46, align 4, !tbaa !56
  %48 = add i32 %47, %38
  %49 = getelementptr i8, ptr %46, i64 -4
  %50 = load i32, ptr %49, align 4, !tbaa !56
  %51 = add i32 %48, %50
  %52 = mul i32 %51, 21845
  %53 = add i32 %52, 32767
  %54 = ashr i32 %53, 16
  %55 = load i32, ptr %36, align 4, !tbaa !56
  %56 = add i32 %54, %55
  store i32 %56, ptr %36, align 4, !tbaa !56
  %indvars.iv.next50 = add nuw nsw i64 %indvars.iv49, 1
  %57 = load i32, ptr %4, align 4, !tbaa !221
  %58 = sext i32 %57 to i64
  %59 = icmp slt i64 %indvars.iv.next50, %58
  br i1 %59, label %.lr.ph41, label %._crit_edge42, !llvm.loop !250

._crit_edge42:                                    ; preds = %.lr.ph41, %.lr.ph46
  %60 = load i32, ptr %13, align 8, !tbaa !220
  %61 = load i32, ptr %14, align 4, !tbaa !215
  %62 = add nsw i32 %61, 1
  %63 = ashr i32 %60, %62
  %64 = sext i32 %63 to i64
  %65 = getelementptr inbounds i32, ptr %.044, i64 %64
  %66 = add nuw nsw i32 %.03643, 1
  %67 = load i32, ptr %15, align 8, !tbaa !222
  %68 = icmp slt i32 %66, %67
  br i1 %68, label %.lr.ph46, label %._crit_edge47, !llvm.loop !251

._crit_edge47:                                    ; preds = %._crit_edge42, %._crit_edge
  ret void
}